target datalayout = "e-m:e-p270:32:32-p271:32:32-p272:64:64-i64:64-i128:128-f80:128-n8:16:32:64-S128"
target triple = "x86_64-pc-linux-gnu"

%"struct.cv::utils::trace::details::Region::LocationStaticStorage" = type { ptr, ptr, ptr, i32, i32 }
%"class.cv::utils::trace::details::Region" = type <{ ptr, i32, [4 x i8] }>
%"class.std::__cxx11::basic_string" = type { %"struct.std::__cxx11::basic_string<char>::_Alloc_hider", i64, %union.anon }
%"struct.std::__cxx11::basic_string<char>::_Alloc_hider" = type { ptr }
%union.anon = type { i64, [8 x i8] }
%"struct.cv::impl::(anonymous namespace)::CvtHelper" = type { %"class.cv::Mat", %"class.cv::Mat", i32, i32, %"class.cv::Size_" }
%"class.cv::Mat" = type { i32, i32, i32, i32, ptr, ptr, ptr, ptr, ptr, ptr, %"struct.cv::MatSize", %"struct.cv::MatStep" }
%"struct.cv::MatSize" = type { ptr }
%"struct.cv::MatStep" = type { ptr, [2 x i64] }
%"class.cv::Size_" = type { i32, i32 }

@_ZZN2cv3hal11cvtBGRtoHSVEPKhmPhmiiiibbbE24__cv_trace_location_fn63 = internal constant %"struct.cv::utils::trace::details::Region::LocationStaticStorage" { ptr @_ZZN2cv3hal11cvtBGRtoHSVEPKhmPhmiiiibbbE30__cv_trace_location_extra_fn63, ptr @.str.3, ptr @.str.4, i32 63, i32 1 }, align 8
@.str.4 = private unnamed_addr constant [134 x i8] c"generated/home/dtcxzyw/WorkSpace/Projects/compilers/llvm-opt-benchmark/bench/opencv/opencv/modules/imgproc/src/color_hsv.dispatch.cpp\00", align 1
@.str.5 = private unnamed_addr constant [75 x i8] c"HAL implementation cvtBGRtoHSV ==> hal_ni_cvtBGRtoHSV returned %d (0x%08x)\00", align 1
@__func__._ZN2cv3hal11cvtBGRtoHSVEPKhmPhmiiiibbb = private unnamed_addr constant [12 x i8] c"cvtBGRtoHSV\00", align 1

; Function Attrs: mustprogress nounwind uwtable
define linkonce_odr hidden noundef i32 @_Z18hal_ni_cvtBGRtoHSVPKhmPhmiiiibbb(ptr noundef %0, i64 noundef %1, ptr noundef %2, i64 noundef %3, i32 noundef %4, i32 noundef %5, i32 noundef %6, i32 noundef %7, i1 noundef zeroext %8, i1 noundef zeroext %9, i1 noundef zeroext %10) #2 comdat {
  %12 = alloca ptr, align 8
  %13 = alloca i64, align 8
  %14 = alloca ptr, align 8
  %15 = alloca i64, align 8
  %16 = alloca i32, align 4
  %17 = alloca i32, align 4
  %18 = alloca i32, align 4
  %19 = alloca i32, align 4
  %20 = alloca i8, align 1
  %21 = alloca i8, align 1
  %22 = alloca i8, align 1
  store ptr %0, ptr %12, align 8
  store i64 %1, ptr %13, align 8
  store ptr %2, ptr %14, align 8
  store i64 %3, ptr %15, align 8
  store i32 %4, ptr %16, align 4
  store i32 %5, ptr %17, align 4
  store i32 %6, ptr %18, align 4
  store i32 %7, ptr %19, align 4
  %23 = zext i1 %8 to i8
  store i8 %23, ptr %20, align 1
  %24 = zext i1 %9 to i8
  store i8 %24, ptr %21, align 1
  %25 = zext i1 %10 to i8
  store i8 %25, ptr %22, align 1
  ret i32 1
}

; Function Attrs: mustprogress nounwind uwtable
define internal void @_ZN2cv4impl12_GLOBAL__N_19CvtHelperINS1_3SetILi3ELi4ELin1EEENS3_ILi3ELin1ELin1EEENS3_ILi0ELi5ELin1EEELNS1_10SizePolicyE4EED2Ev(ptr noundef nonnull align 8 dereferenceable(208) %0) unnamed_addr #2 align 2 {
  %2 = alloca ptr, align 8
  store ptr %0, ptr %2, align 8
  %3 = load ptr, ptr %2, align 8
  %4 = getelementptr inbounds %"struct.cv::impl::(anonymous namespace)::CvtHelper", ptr %3, i32 0, i32 1
  call void @_ZN2cv3MatD1Ev(ptr noundef nonnull align 8 dereferenceable(96) %4) #5
  %5 = getelementptr inbounds %"struct.cv::impl::(anonymous namespace)::CvtHelper", ptr %3, i32 0, i32 0
  call void @_ZN2cv3MatD1Ev(ptr noundef nonnull align 8 dereferenceable(96) %5) #5
  ret void
}

; Function Attrs: mustprogress uwtable
define void @_ZN2cv3hal11cvtBGRtoHSVEPKhmPhmiiiibbb(ptr noundef %0, i64 noundef %1, ptr noundef %2, i64 noundef %3, i32 noundef %4, i32 noundef %5, i32 noundef %6, i32 noundef %7, i1 noundef zeroext %8, i1 noundef zeroext %9, i1 noundef zeroext %10) #0 personality ptr @__gxx_personality_v0 {
  %12 = alloca ptr, align 8
  %13 = alloca i64, align 8
  %14 = alloca ptr, align 8
  %15 = alloca i64, align 8
  %16 = alloca i32, align 4
  %17 = alloca i32, align 4
  %18 = alloca i32, align 4
  %19 = alloca i32, align 4
  %20 = alloca i8, align 1
  %21 = alloca i8, align 1
  %22 = alloca i8, align 1
  %23 = alloca %"class.cv::utils::trace::details::Region", align 8
  %24 = alloca i32, align 4
  %25 = alloca ptr, align 8
  %26 = alloca i32, align 4
  %27 = alloca i32, align 4
  %28 = alloca %"class.std::__cxx11::basic_string", align 8
  store ptr %0, ptr %12, align 8
  store i64 %1, ptr %13, align 8
  store ptr %2, ptr %14, align 8
  store i64 %3, ptr %15, align 8
  store i32 %4, ptr %16, align 4
  store i32 %5, ptr %17, align 4
  store i32 %6, ptr %18, align 4
  store i32 %7, ptr %19, align 4
  %29 = zext i1 %8 to i8
  store i8 %29, ptr %20, align 1
  %30 = zext i1 %9 to i8
  store i8 %30, ptr %21, align 1
  %31 = zext i1 %10 to i8
  store i8 %31, ptr %22, align 1
  call void @_ZN2cv5utils5trace7details6RegionC1ERKNS3_21LocationStaticStorageE(ptr noundef nonnull align 8 dereferenceable(12) %23, ptr noundef nonnull align 8 dereferenceable(32) @_ZZN2cv3hal11cvtBGRtoHSVEPKhmPhmiiiibbbE24__cv_trace_location_fn63)
  %32 = load ptr, ptr %12, align 8
  %33 = load i64, ptr %13, align 8
  %34 = load ptr, ptr %14, align 8
  %35 = load i64, ptr %15, align 8
  %36 = load i32, ptr %16, align 4
  %37 = load i32, ptr %17, align 4
  %38 = load i32, ptr %18, align 4
  %39 = load i32, ptr %19, align 4
  %40 = load i8, ptr %20, align 1
  %41 = trunc i8 %40 to i1
  %42 = load i8, ptr %21, align 1
  %43 = trunc i8 %42 to i1
  %44 = load i8, ptr %22, align 1
  %45 = trunc i8 %44 to i1
  %46 = invoke noundef i32 @_Z18hal_ni_cvtBGRtoHSVPKhmPhmiiiibbb(ptr noundef %32, i64 noundef %33, ptr noundef %34, i64 noundef %35, i32 noundef %36, i32 noundef %37, i32 noundef %38, i32 noundef %39, i1 noundef zeroext %41, i1 noundef zeroext %43, i1 noundef zeroext %45)
          to label %47 unwind label %51

47:                                               ; preds = %11
  store i32 %46, ptr %24, align 4
  %48 = load i32, ptr %24, align 4
  %49 = icmp eq i32 %48, 0
  br i1 %49, label %50, label %55

50:                                               ; preds = %47
  store i32 1, ptr %27, align 4
  br label %84

51:                                               ; preds = %68, %58, %11
  %52 = landingpad { ptr, i32 }
          cleanup
  %53 = extractvalue { ptr, i32 } %52, 0
  store ptr %53, ptr %25, align 8
  %54 = extractvalue { ptr, i32 } %52, 1
  store i32 %54, ptr %26, align 4
  br label %85

55:                                               ; preds = %47
  %56 = load i32, ptr %24, align 4
  %57 = icmp ne i32 %56, 1
  br i1 %57, label %58, label %67

58:                                               ; preds = %55
  %59 = load i32, ptr %24, align 4
  %60 = load i32, ptr %24, align 4
  invoke void (ptr, ptr, ...) @_ZN2cv6formatB5cxx11EPKcz(ptr dead_on_unwind writable sret(%"class.std::__cxx11::basic_string") align 8 %28, ptr noundef @.str.5, i32 noundef %59, i32 noundef %60)
          to label %61 unwind label %51

61:                                               ; preds = %58
  invoke void @_ZN2cv5errorEiRKNSt7__cxx1112basic_stringIcSt11char_traitsIcESaIcEEEPKcS9_i(i32 noundef -3, ptr noundef nonnull align 8 dereferenceable(32) %28, ptr noundef @__func__._ZN2cv3hal11cvtBGRtoHSVEPKhmPhmiiiibbb, ptr noundef @.str.4, i32 noundef 65) #13
          to label %62 unwind label %63

62:                                               ; preds = %61
  unreachable

63:                                               ; preds = %61
  %64 = landingpad { ptr, i32 }
          cleanup
  %65 = extractvalue { ptr, i32 } %64, 0
  store ptr %65, ptr %25, align 8
  %66 = extractvalue { ptr, i32 } %64, 1
  store i32 %66, ptr %26, align 4
  call void @_ZNSt7__cxx1112basic_stringIcSt11char_traitsIcESaIcEED1Ev(ptr noundef nonnull align 8 dereferenceable(32) %28) #5
  br label %85

67:                                               ; preds = %55
  br label %68

68:                                               ; preds = %67
  %69 = load ptr, ptr %12, align 8
  %70 = load i64, ptr %13, align 8
  %71 = load ptr, ptr %14, align 8
  %72 = load i64, ptr %15, align 8
  %73 = load i32, ptr %16, align 4
  %74 = load i32, ptr %17, align 4
  %75 = load i32, ptr %18, align 4
  %76 = load i32, ptr %19, align 4
  %77 = load i8, ptr %20, align 1
  %78 = trunc i8 %77 to i1
  %79 = load i8, ptr %21, align 1
  %80 = trunc i8 %79 to i1
  %81 = load i8, ptr %22, align 1
  %82 = trunc i8 %81 to i1
  invoke void @_ZN2cv3hal12cpu_baseline11cvtBGRtoHSVEPKhmPhmiiiibbb(ptr noundef %69, i64 noundef %70, ptr noundef %71, i64 noundef %72, i32 noundef %73, i32 noundef %74, i32 noundef %75, i32 noundef %76, i1 noundef zeroext %78, i1 noundef zeroext %80, i1 noundef zeroext %82)
          to label %83 unwind label %51

83:                                               ; preds = %68
  store i32 1, ptr %27, align 4
  br label %84

84:                                               ; preds = %83, %50
  call void @_ZN2cv5utils5trace7details6RegionD2Ev(ptr noundef nonnull align 8 dereferenceable(12) %23) #5
  ret void

85:                                               ; preds = %63, %51
  call void @_ZN2cv5utils5trace7details6RegionD2Ev(ptr noundef nonnull align 8 dereferenceable(12) %23) #5
  br label %86

86:                                               ; preds = %85
  %87 = load ptr, ptr %25, align 8
  %88 = load i32, ptr %26, align 4
  %89 = insertvalue { ptr, i32 } poison, ptr %87, 0
  %90 = insertvalue { ptr, i32 } %89, i32 %88, 1
  resume { ptr, i32 } %90
}

; Function Attrs: mustprogress nounwind uwtable
define linkonce_odr hidden noundef i64 @_ZNK2cv7MatStepcvmEv(ptr noundef nonnull align 8 dereferenceable(24) %0) #2 comdat align 2 {
  %2 = alloca ptr, align 8
  store ptr %0, ptr %2, align 8
  %3 = load ptr, ptr %2, align 8
  %4 = getelementptr inbounds %"struct.cv::MatStep", ptr %3, i32 0, i32 1
  %5 = getelementptr inbounds [2 x i64], ptr %4, i64 0, i64 0
  %6 = load i64, ptr %5, align 8
  ret i64 %6
}

; Function Attrs: mustprogress uwtable
define hidden void @_ZN2cv15cvtColorBGR2HSVERKNS_11_InputArrayERKNS_12_OutputArrayEbb(ptr noundef nonnull align 8 dereferenceable(24) %0, ptr noundef nonnull align 8 dereferenceable(24) %1, i1 noundef zeroext %2, i1 noundef zeroext %3) #0 personality ptr @__gxx_personality_v0 {
  %5 = alloca ptr, align 8
  %6 = alloca ptr, align 8
  %7 = alloca i8, align 1
  %8 = alloca i8, align 1
  %9 = alloca %"struct.cv::impl::(anonymous namespace)::CvtHelper", align 8
  %10 = alloca ptr, align 8
  %11 = alloca i32, align 4
  store ptr %0, ptr %5, align 8
  store ptr %1, ptr %6, align 8
  %12 = zext i1 %2 to i8
  store i8 %12, ptr %7, align 1
  %13 = zext i1 %3 to i8
  store i8 %13, ptr %8, align 1
  %14 = load ptr, ptr %5, align 8
  %15 = load ptr, ptr %6, align 8
  call void @_ZN2cv4impl12_GLOBAL__N_19CvtHelperINS1_3SetILi3ELi4ELin1EEENS3_ILi3ELin1ELin1EEENS3_ILi0ELi5ELin1EEELNS1_10SizePolicyE4EEC2ERKNS_11_InputArrayERKNS_12_OutputArrayEi(ptr noundef nonnull align 8 dereferenceable(208) %9, ptr noundef nonnull align 8 dereferenceable(24) %14, ptr noundef nonnull align 8 dereferenceable(24) %15, i32 noundef 3)
  %16 = getelementptr inbounds %"struct.cv::impl::(anonymous namespace)::CvtHelper", ptr %9, i32 0, i32 0
  %17 = getelementptr inbounds %"class.cv::Mat", ptr %16, i32 0, i32 4
  %18 = load ptr, ptr %17, align 8
  %19 = getelementptr inbounds %"struct.cv::impl::(anonymous namespace)::CvtHelper", ptr %9, i32 0, i32 0
  %20 = getelementptr inbounds %"class.cv::Mat", ptr %19, i32 0, i32 11
  %21 = invoke noundef i64 @_ZNK2cv7MatStepcvmEv(ptr noundef nonnull align 8 dereferenceable(24) %20)
          to label %22 unwind label %45

22:                                               ; preds = %4
  %23 = getelementptr inbounds %"struct.cv::impl::(anonymous namespace)::CvtHelper", ptr %9, i32 0, i32 1
  %24 = getelementptr inbounds %"class.cv::Mat", ptr %23, i32 0, i32 4
  %25 = load ptr, ptr %24, align 8
  %26 = getelementptr inbounds %"struct.cv::impl::(anonymous namespace)::CvtHelper", ptr %9, i32 0, i32 1
  %27 = getelementptr inbounds %"class.cv::Mat", ptr %26, i32 0, i32 11
  %28 = invoke noundef i64 @_ZNK2cv7MatStepcvmEv(ptr noundef nonnull align 8 dereferenceable(24) %27)
          to label %29 unwind label %45

29:                                               ; preds = %22
  %30 = getelementptr inbounds %"struct.cv::impl::(anonymous namespace)::CvtHelper", ptr %9, i32 0, i32 0
  %31 = getelementptr inbounds %"class.cv::Mat", ptr %30, i32 0, i32 3
  %32 = load i32, ptr %31, align 4
  %33 = getelementptr inbounds %"struct.cv::impl::(anonymous namespace)::CvtHelper", ptr %9, i32 0, i32 0
  %34 = getelementptr inbounds %"class.cv::Mat", ptr %33, i32 0, i32 2
  %35 = load i32, ptr %34, align 8
  %36 = getelementptr inbounds %"struct.cv::impl::(anonymous namespace)::CvtHelper", ptr %9, i32 0, i32 2
  %37 = load i32, ptr %36, align 8
  %38 = getelementptr inbounds %"struct.cv::impl::(anonymous namespace)::CvtHelper", ptr %9, i32 0, i32 3
  %39 = load i32, ptr %38, align 4
  %40 = load i8, ptr %7, align 1
  %41 = trunc i8 %40 to i1
  %42 = load i8, ptr %8, align 1
  %43 = trunc i8 %42 to i1
  invoke void @_ZN2cv3hal11cvtBGRtoHSVEPKhmPhmiiiibbb(ptr noundef %18, i64 noundef %21, ptr noundef %25, i64 noundef %28, i32 noundef %32, i32 noundef %35, i32 noundef %37, i32 noundef %39, i1 noundef zeroext %41, i1 noundef zeroext %43, i1 noundef zeroext true)
          to label %44 unwind label %45

44:                                               ; preds = %29
  call void @_ZN2cv4impl12_GLOBAL__N_19CvtHelperINS1_3SetILi3ELi4ELin1EEENS3_ILi3ELin1ELin1EEENS3_ILi0ELi5ELin1EEELNS1_10SizePolicyE4EED2Ev(ptr noundef nonnull align 8 dereferenceable(208) %9) #5
  ret void

45:                                               ; preds = %29, %22, %4
  %46 = landingpad { ptr, i32 }
          cleanup
  %47 = extractvalue { ptr, i32 } %46, 0
  store ptr %47, ptr %10, align 8
  %48 = extractvalue { ptr, i32 } %46, 1
  store i32 %48, ptr %11, align 4
  call void @_ZN2cv4impl12_GLOBAL__N_19CvtHelperINS1_3SetILi3ELi4ELin1EEENS3_ILi3ELin1ELin1EEENS3_ILi0ELi5ELin1EEELNS1_10SizePolicyE4EED2Ev(ptr noundef nonnull align 8 dereferenceable(208) %9) #5
  br label %49

49:                                               ; preds = %45
  %50 = load ptr, ptr %10, align 8
  %51 = load i32, ptr %11, align 4
  %52 = insertvalue { ptr, i32 } poison, ptr %50, 0
  %53 = insertvalue { ptr, i32 } %52, i32 %51, 1
  resume { ptr, i32 } %53
}